; Function Attrs: mustprogress nofree norecurse nosync nounwind willreturn memory(argmem: readwrite) uwtable
define internal noundef zeroext i1 @"_ZNSt17_Function_handlerIFbPKcmEZZN7httplib6detail21write_content_chunkedIZNS3_6Server27write_content_with_providerERNS3_6StreamERKNS3_7RequestERNS3_8ResponseERKNSt7__cxx1112basic_stringIcSt11char_traitsIcESaIcEEESL_E3$_0NS4_10compressorEEEbS8_RKSt8functionIFbmmRNS3_8DataSinkEEERKT_RT0_RNS3_5ErrorEENKUlPKSt8multimapISJ_SJ_NS4_2ciESaISt4pairISK_SJ_EEEE_clES19_EUlS1_mE_E10_M_managerERSt9_Any_dataRKS1D_St18_Manager_operation"(ptr nocapture noundef nonnull writeonly align 8 dereferenceable(16) %__dest, ptr noundef nonnull align 8 dereferenceable(16) %__source, i32 noundef %__op) #21 align 2 personality ptr @__gxx_personality_v0 {
entry:
  switch i32 %__op, label %sw.epilog [
    i32 0, label %sw.bb
    i32 1, label %sw.bb1
    i32 2, label %sw.bb4.i
  ]

sw.bb:                                            ; preds = %entry
  store ptr @"_ZTIZZN7httplib6detail21write_content_chunkedIZNS_6Server27write_content_with_providerERNS_6StreamERKNS_7RequestERNS_8ResponseERKNSt7__cxx1112basic_stringIcSt11char_traitsIcESaIcEEESH_E3$_0NS0_10compressorEEEbS4_RKSt8functionIFbmmRNS_8DataSinkEEERKT_RT0_RNS_5ErrorEENKUlPKSt8multimapISF_SF_NS0_2ciESaISt4pairISG_SF_EEEE_clES15_EUlPKcmE_", ptr %__dest, align 8
  br label %sw.epilog

sw.bb1:                                           ; preds = %entry
  store ptr %__source, ptr %__dest, align 8
  br label %sw.epilog

sw.bb4.i:                                         ; preds = %entry
  %call5.val.i = load i64, ptr %__source, align 8
  store i64 %call5.val.i, ptr %__dest, align 8
  br label %sw.epilog

sw.epilog:                                        ; preds = %entry, %sw.bb4.i, %sw.bb1, %sw.bb
  ret i1 false
}